; Function Attrs: mustprogress nounwind uwtable
define dso_local void @_ZN4llvm18ARMAttributeParser16CPU_arch_profileENS_13ARMBuildAttrs8AttrTypeE(ptr dead_on_unwind noalias writable writeonly sret(%"class.llvm::Error") align 8 captures(none) initializes((0, 8)) %0, ptr noundef nonnull align 8 dereferenceable(200) %1, i32 noundef %2) #0 align 2 {
  %4 = getelementptr inbounds nuw i8, ptr %1, i64 160
  %5 = getelementptr inbounds nuw i8, ptr %1, i64 184
  %6 = getelementptr inbounds nuw i8, ptr %1, i64 192
  %7 = tail call noundef i64 @_ZNK4llvm13DataExtractor10getULEB128EPmPNS_5ErrorE(ptr noundef nonnull align 8 dereferenceable(18) %4, ptr noundef nonnull align 8 dereferenceable(16) %5, ptr noundef nonnull %6) #14
  switch i64 %7, label %_ZN4llvm12ErrorSuccessD2Ev.exit [
    i64 65, label %8
    i64 82, label %9
    i64 77, label %10
    i64 83, label %11
    i64 0, label %12
  ]

8:                                                ; preds = %3
  br label %_ZN4llvm12ErrorSuccessD2Ev.exit

9:                                                ; preds = %3
  br label %_ZN4llvm12ErrorSuccessD2Ev.exit

10:                                               ; preds = %3
  br label %_ZN4llvm12ErrorSuccessD2Ev.exit

11:                                               ; preds = %3
  br label %_ZN4llvm12ErrorSuccessD2Ev.exit

12:                                               ; preds = %3
  br label %_ZN4llvm12ErrorSuccessD2Ev.exit

_ZN4llvm12ErrorSuccessD2Ev.exit:                  ; preds = %3, %8, %9, %10, %11, %12
  %.sroa.8.0 = phi i64 [ 4, %12 ], [ 7, %11 ], [ 15, %10 ], [ 9, %9 ], [ 11, %8 ], [ 7, %3 ]
  %.sroa.017.0 = phi ptr [ @.str.10, %12 ], [ @.str.9, %11 ], [ @.str.8, %10 ], [ @.str.7, %9 ], [ @.str.6, %8 ], [ @.str.5, %3 ]
  %13 = trunc i64 %7 to i32
  tail call void @_ZN4llvm18ELFAttributeParser14printAttributeEjjNS_9StringRefE(ptr noundef nonnull align 8 dereferenceable(200) %1, i32 noundef %2, i32 noundef %13, ptr nonnull %.sroa.017.0, i64 %.sroa.8.0) #14
  store ptr null, ptr %0, align 8
  ret void
}